target datalayout = "e-m:e-p270:32:32-p271:32:32-p272:64:64-i64:64-i128:128-f80:128-n8:16:32:64-S128"
target triple = "x86_64-unknown-linux-gnu"

%"class.QuantLib::GaussianOrthogonalPolynomial" = type { ptr }
%"class.QuantLib::GaussHyperbolicPolynomial" = type { %"class.QuantLib::GaussianOrthogonalPolynomial" }
%class.anon.1 = type { %"class.QuantLib::GaussHyperbolicPolynomial", i64 }

; Function Attrs: inlinehint mustprogress uwtable
define internal noundef double @"_ZZN8QuantLib14LsmBasisSystem15pathBasisSystemEmNS0_14PolynomialTypeEENK3$_2clEd"(ptr noundef nonnull align 8 dereferenceable(16) %this, double noundef %x) #5 align 2 {
entry:
  %this.addr = alloca ptr, align 8
  %x.addr = alloca double, align 8
  store ptr %this, ptr %this.addr, align 8, !tbaa !32
  store double %x, ptr %x.addr, align 8, !tbaa !155
  %this1 = load ptr, ptr %this.addr, align 8
  %0 = getelementptr inbounds nuw %class.anon.1, ptr %this1, i32 0, i32 0
  %1 = getelementptr inbounds nuw %class.anon.1, ptr %this1, i32 0, i32 1
  %2 = load i64, ptr %1, align 8, !tbaa !17
  %3 = load double, ptr %x.addr, align 8, !tbaa !155
  %call = call noundef double @_ZNK8QuantLib28GaussianOrthogonalPolynomial13weightedValueEmd(ptr noundef nonnull align 8 dereferenceable(8) %0, i64 noundef %2, double noundef %3)
  ret double %call
}

; Function Attrs: mustprogress nounwind uwtable
define linkonce_odr noundef ptr @_ZNKSt9_Any_data9_M_accessEv(ptr noundef nonnull align 8 dereferenceable(16) %this) #2 comdat align 2 {
entry:
  %this.addr = alloca ptr, align 8
  store ptr %this, ptr %this.addr, align 8, !tbaa !32
  %this1 = load ptr, ptr %this.addr, align 8
  %arrayidx = getelementptr inbounds [16 x i8], ptr %this1, i64 0, i64 0
  ret ptr %arrayidx
}

; Function Attrs: mustprogress uwtable
define internal noundef double @"_ZSt13__invoke_implIdRZN8QuantLib14LsmBasisSystem15pathBasisSystemEmNS1_14PolynomialTypeEE3$_2JdEET_St14__invoke_otherOT0_DpOT1_"(ptr noundef nonnull align 8 dereferenceable(16) %__f, ptr noundef nonnull align 8 dereferenceable(8) %__args) #0 {
entry:
  %__f.addr = alloca ptr, align 8
  %__args.addr = alloca ptr, align 8
  store ptr %__f, ptr %__f.addr, align 8, !tbaa !32
  store ptr %__args, ptr %__args.addr, align 8, !tbaa !32
  %0 = load ptr, ptr %__f.addr, align 8, !tbaa !32
  %1 = load ptr, ptr %__args.addr, align 8, !tbaa !32
  %2 = load double, ptr %1, align 8, !tbaa !155
  %call = call noundef double @"_ZZN8QuantLib14LsmBasisSystem15pathBasisSystemEmNS0_14PolynomialTypeEENK3$_2clEd"(ptr noundef nonnull align 8 dereferenceable(16) %0, double noundef %2)
  ret double %call
}

; Function Attrs: mustprogress nounwind uwtable
define internal noundef nonnull align 8 dereferenceable(8) ptr @"_ZNKSt9_Any_data9_M_accessIPZN8QuantLib14LsmBasisSystem15pathBasisSystemEmNS2_14PolynomialTypeEE3$_2EERKT_v"(ptr noundef nonnull align 8 dereferenceable(16) %this) #2 align 2 {
entry:
  %this.addr = alloca ptr, align 8
  store ptr %this, ptr %this.addr, align 8, !tbaa !32
  %this1 = load ptr, ptr %this.addr, align 8
  %call = call noundef ptr @_ZNKSt9_Any_data9_M_accessEv(ptr noundef nonnull align 8 dereferenceable(16) %this1) #17
  ret ptr %call
}

; Function Attrs: mustprogress uwtable
define internal noundef double @"_ZSt10__invoke_rIdRZN8QuantLib14LsmBasisSystem15pathBasisSystemEmNS1_14PolynomialTypeEE3$_2JdEENSt9enable_ifIX16is_invocable_r_vIT_T0_DpT1_EES6_E4typeEOS7_DpOS8_"(ptr noundef nonnull align 8 dereferenceable(16) %__fn, ptr noundef nonnull align 8 dereferenceable(8) %__args) #0 {
entry:
  %__fn.addr = alloca ptr, align 8
  %__args.addr = alloca ptr, align 8
  store ptr %__fn, ptr %__fn.addr, align 8, !tbaa !32
  store ptr %__args, ptr %__args.addr, align 8, !tbaa !32
  %0 = load ptr, ptr %__fn.addr, align 8, !tbaa !32
  %1 = load ptr, ptr %__args.addr, align 8, !tbaa !32
  %call = call noundef double @"_ZSt13__invoke_implIdRZN8QuantLib14LsmBasisSystem15pathBasisSystemEmNS1_14PolynomialTypeEE3$_2JdEET_St14__invoke_otherOT0_DpOT1_"(ptr noundef nonnull align 8 dereferenceable(16) %0, ptr noundef nonnull align 8 dereferenceable(8) %1)
  ret double %call
}

; Function Attrs: mustprogress nounwind uwtable
define internal noundef ptr @"_ZNSt14_Function_base13_Base_managerIZN8QuantLib14LsmBasisSystem15pathBasisSystemEmNS2_14PolynomialTypeEE3$_2E14_M_get_pointerERKSt9_Any_data"(ptr noundef nonnull align 8 dereferenceable(16) %__source) #2 align 2 {
entry:
  %__source.addr = alloca ptr, align 8
  store ptr %__source, ptr %__source.addr, align 8, !tbaa !32
  %0 = load ptr, ptr %__source.addr, align 8, !tbaa !32
  %call = call noundef nonnull align 8 dereferenceable(8) ptr @"_ZNKSt9_Any_data9_M_accessIPZN8QuantLib14LsmBasisSystem15pathBasisSystemEmNS2_14PolynomialTypeEE3$_2EERKT_v"(ptr noundef nonnull align 8 dereferenceable(16) %0) #17
  %1 = load ptr, ptr %call, align 8, !tbaa !32
  ret ptr %1
}

; Function Attrs: mustprogress uwtable
define internal noundef double @"_ZNSt17_Function_handlerIFddEZN8QuantLib14LsmBasisSystem15pathBasisSystemEmNS2_14PolynomialTypeEE3$_2E9_M_invokeERKSt9_Any_dataOd"(ptr noundef nonnull align 8 dereferenceable(16) %__functor, ptr noundef nonnull align 8 dereferenceable(8) %__args) #0 align 2 {
entry:
  %__functor.addr = alloca ptr, align 8
  %__args.addr = alloca ptr, align 8
  store ptr %__functor, ptr %__functor.addr, align 8, !tbaa !32
  store ptr %__args, ptr %__args.addr, align 8, !tbaa !32
  %0 = load ptr, ptr %__functor.addr, align 8, !tbaa !32
  %call = call noundef ptr @"_ZNSt14_Function_base13_Base_managerIZN8QuantLib14LsmBasisSystem15pathBasisSystemEmNS2_14PolynomialTypeEE3$_2E14_M_get_pointerERKSt9_Any_data"(ptr noundef nonnull align 8 dereferenceable(16) %0) #17
  %1 = load ptr, ptr %__args.addr, align 8, !tbaa !32
  %call1 = call noundef double @"_ZSt10__invoke_rIdRZN8QuantLib14LsmBasisSystem15pathBasisSystemEmNS1_14PolynomialTypeEE3$_2JdEENSt9enable_ifIX16is_invocable_r_vIT_T0_DpT1_EES6_E4typeEOS7_DpOS8_"(ptr noundef nonnull align 8 dereferenceable(16) %call, ptr noundef nonnull align 8 dereferenceable(8) %1)
  ret double %call1
}